target datalayout = "e-m:e-p270:32:32-p271:32:32-p272:64:64-i64:64-i128:128-f80:128-n8:16:32:64-S128"
target triple = "x86_64-pc-linux-gnu"

%"class.google::protobuf::MessageLite" = type { ptr, %"class.google::protobuf::internal::InternalMetadata" }
%"class.google::protobuf::internal::InternalMetadata" = type { ptr }
%"class.google::protobuf::internal::CachedSize" = type { %"struct.std::atomic.47" }
%"struct.std::atomic.47" = type { %"struct.std::__atomic_base.48" }
%"struct.std::__atomic_base.48" = type { i32 }
%"class.google::protobuf::internal::HasBits" = type { [1 x i32] }
%"struct.google::protobuf::internal::ArenaStringPtr" = type { ptr }
%"class.i18n::phonenumbers::PhoneNumber" = type { %"class.google::protobuf::MessageLite", %"class.google::protobuf::internal::HasBits", %"class.google::protobuf::internal::CachedSize", %"struct.google::protobuf::internal::ArenaStringPtr", %"struct.google::protobuf::internal::ArenaStringPtr", %"struct.google::protobuf::internal::ArenaStringPtr", i64, i32, i8, i32, i32 }

; Function Attrs: mustprogress uwtable
define dso_local noundef i32 @_ZNK4i18n12phonenumbers15PhoneNumberUtil26IsPossibleNumberWithReasonERKNS0_11PhoneNumberE(ptr noundef nonnull align 8 dereferenceable(64) %0, ptr noundef nonnull align 8 dereferenceable(72) %1) #4 align 2 {
  %3 = alloca ptr, align 8
  %4 = alloca ptr, align 8
  store ptr %0, ptr %3, align 8
  store ptr %1, ptr %4, align 8
  %5 = load ptr, ptr %3, align 8
  %6 = load ptr, ptr %4, align 8
  %7 = call noundef i32 @_ZNK4i18n12phonenumbers15PhoneNumberUtil33IsPossibleNumberForTypeWithReasonERKNS0_11PhoneNumberENS1_15PhoneNumberTypeE(ptr noundef nonnull align 8 dereferenceable(64) %5, ptr noundef nonnull align 8 dereferenceable(72) %6, i32 noundef 11)
  ret i32 %7
}

; Function Attrs: mustprogress uwtable
define dso_local noundef zeroext i1 @_ZNK4i18n12phonenumbers15PhoneNumberUtil16IsPossibleNumberERKNS0_11PhoneNumberE(ptr noundef nonnull align 8 dereferenceable(64) %0, ptr noundef nonnull align 8 dereferenceable(72) %1) #4 align 2 {
  %3 = alloca ptr, align 8
  %4 = alloca ptr, align 8
  %5 = alloca i32, align 4
  store ptr %0, ptr %3, align 8
  store ptr %1, ptr %4, align 8
  %6 = load ptr, ptr %3, align 8
  %7 = load ptr, ptr %4, align 8
  %8 = call noundef i32 @_ZNK4i18n12phonenumbers15PhoneNumberUtil26IsPossibleNumberWithReasonERKNS0_11PhoneNumberE(ptr noundef nonnull align 8 dereferenceable(64) %6, ptr noundef nonnull align 8 dereferenceable(72) %7)
  store i32 %8, ptr %5, align 4
  %9 = load i32, ptr %5, align 4
  %10 = icmp eq i32 %9, 0
  br i1 %10, label %14, label %11

11:                                               ; preds = %2
  %12 = load i32, ptr %5, align 4
  %13 = icmp eq i32 %12, 1
  br label %14

14:                                               ; preds = %11, %2
  %15 = phi i1 [ true, %2 ], [ %13, %11 ]
  ret i1 %15
}

; Function Attrs: mustprogress uwtable
define dso_local noundef i32 @_ZNK4i18n12phonenumbers15PhoneNumberUtil5ParseERKNSt7__cxx1112basic_stringIcSt11char_traitsIcESaIcEEES9_PNS0_11PhoneNumberE(ptr noundef nonnull align 8 dereferenceable(64) %0, ptr noundef nonnull align 8 dereferenceable(32) %1, ptr noundef nonnull align 8 dereferenceable(32) %2, ptr noundef %3) #4 align 2 {
  %5 = alloca ptr, align 8
  %6 = alloca ptr, align 8
  %7 = alloca ptr, align 8
  %8 = alloca ptr, align 8
  store ptr %0, ptr %5, align 8
  store ptr %1, ptr %6, align 8
  store ptr %2, ptr %7, align 8
  store ptr %3, ptr %8, align 8
  %9 = load ptr, ptr %5, align 8
  %10 = load ptr, ptr %6, align 8
  %11 = load ptr, ptr %7, align 8
  %12 = load ptr, ptr %8, align 8
  %13 = call noundef i32 @_ZNK4i18n12phonenumbers15PhoneNumberUtil11ParseHelperERKNSt7__cxx1112basic_stringIcSt11char_traitsIcESaIcEEES9_bbPNS0_11PhoneNumberE(ptr noundef nonnull align 8 dereferenceable(64) %9, ptr noundef nonnull align 8 dereferenceable(32) %10, ptr noundef nonnull align 8 dereferenceable(32) %11, i1 noundef zeroext false, i1 noundef zeroext true, ptr noundef %12)
  ret i32 %13
}

; Function Attrs: mustprogress uwtable
define linkonce_odr dso_local void @_ZN4i18n12phonenumbers11PhoneNumberC2Ev(ptr noundef nonnull align 8 dereferenceable(72) %0) unnamed_addr #4 comdat align 2 {
  %2 = alloca ptr, align 8
  store ptr %0, ptr %2, align 8
  %3 = load ptr, ptr %2, align 8
  call void @_ZN4i18n12phonenumbers11PhoneNumberC2EPN6google8protobuf5ArenaE(ptr noundef nonnull align 8 dereferenceable(72) %3, ptr noundef null)
  ret void
}

; Function Attrs: mustprogress uwtable
define dso_local noundef zeroext i1 @_ZNK4i18n12phonenumbers15PhoneNumberUtil25IsPossibleNumberForStringERKNSt7__cxx1112basic_stringIcSt11char_traitsIcESaIcEEES9_(ptr noundef nonnull align 8 dereferenceable(64) %0, ptr noundef nonnull align 8 dereferenceable(32) %1, ptr noundef nonnull align 8 dereferenceable(32) %2) #4 align 2 personality ptr @__gxx_personality_v0 {
  %4 = alloca i1, align 1
  %5 = alloca ptr, align 8
  %6 = alloca ptr, align 8
  %7 = alloca ptr, align 8
  %8 = alloca %"class.i18n::phonenumbers::PhoneNumber", align 8
  %9 = alloca ptr, align 8
  %10 = alloca i32, align 4
  %11 = alloca i32, align 4
  store ptr %0, ptr %5, align 8
  store ptr %1, ptr %6, align 8
  store ptr %2, ptr %7, align 8
  %12 = load ptr, ptr %5, align 8
  call void @_ZN4i18n12phonenumbers11PhoneNumberC2Ev(ptr noundef nonnull align 8 dereferenceable(72) %8)
  %13 = load ptr, ptr %6, align 8
  %14 = load ptr, ptr %7, align 8
  %15 = invoke noundef i32 @_ZNK4i18n12phonenumbers15PhoneNumberUtil5ParseERKNSt7__cxx1112basic_stringIcSt11char_traitsIcESaIcEEES9_PNS0_11PhoneNumberE(ptr noundef nonnull align 8 dereferenceable(64) %12, ptr noundef nonnull align 8 dereferenceable(32) %13, ptr noundef nonnull align 8 dereferenceable(32) %14, ptr noundef %8)
          to label %16 unwind label %21

16:                                               ; preds = %3
  %17 = icmp eq i32 %15, 0
  br i1 %17, label %18, label %25

18:                                               ; preds = %16
  %19 = invoke noundef zeroext i1 @_ZNK4i18n12phonenumbers15PhoneNumberUtil16IsPossibleNumberERKNS0_11PhoneNumberE(ptr noundef nonnull align 8 dereferenceable(64) %12, ptr noundef nonnull align 8 dereferenceable(72) %8)
          to label %20 unwind label %21

20:                                               ; preds = %18
  store i1 %19, ptr %4, align 1
  store i32 1, ptr %11, align 4
  br label %26

21:                                               ; preds = %18, %3
  %22 = landingpad { ptr, i32 }
          cleanup
  %23 = extractvalue { ptr, i32 } %22, 0
  store ptr %23, ptr %9, align 8
  %24 = extractvalue { ptr, i32 } %22, 1
  store i32 %24, ptr %10, align 4
  call void @_ZN4i18n12phonenumbers11PhoneNumberD1Ev(ptr noundef nonnull align 8 dereferenceable(72) %8) #3
  br label %28

25:                                               ; preds = %16
  store i1 false, ptr %4, align 1
  store i32 1, ptr %11, align 4
  br label %26

26:                                               ; preds = %25, %20
  call void @_ZN4i18n12phonenumbers11PhoneNumberD1Ev(ptr noundef nonnull align 8 dereferenceable(72) %8) #3
  %27 = load i1, ptr %4, align 1
  ret i1 %27

28:                                               ; preds = %21
  %29 = load ptr, ptr %9, align 8
  %30 = load i32, ptr %10, align 4
  %31 = insertvalue { ptr, i32 } poison, ptr %29, 0
  %32 = insertvalue { ptr, i32 } %31, i32 %30, 1
  resume { ptr, i32 } %32
}