; Function Attrs: mustprogress uwtable
define dso_local noundef zeroext i1 @_ZNK4i18n12phonenumbers15PhoneNumberUtil25IsPossibleNumberForStringERKNSt7__cxx1112basic_stringIcSt11char_traitsIcESaIcEEES9_(ptr nocapture noundef nonnull readonly align 8 dereferenceable(64) %0, ptr noundef nonnull align 8 dereferenceable(32) %1, ptr noundef nonnull align 8 dereferenceable(32) %2) local_unnamed_addr #4 align 2 personality ptr @__gxx_personality_v0 {
  %4 = alloca %"class.i18n::phonenumbers::PhoneNumber", align 8
  call void @_ZN4i18n12phonenumbers11PhoneNumberC2EPN6google8protobuf5ArenaE(ptr noundef nonnull align 8 dereferenceable(72) %4, ptr noundef null)
  %5 = invoke noundef i32 @_ZNK4i18n12phonenumbers15PhoneNumberUtil11ParseHelperERKNSt7__cxx1112basic_stringIcSt11char_traitsIcESaIcEEES9_bbPNS0_11PhoneNumberE(ptr noundef nonnull align 8 dereferenceable(64) %0, ptr noundef nonnull align 8 dereferenceable(32) %1, ptr noundef nonnull align 8 dereferenceable(32) %2, i1 noundef zeroext false, i1 noundef zeroext true, ptr noundef nonnull %4)
          to label %_ZNK4i18n12phonenumbers15PhoneNumberUtil5ParseERKNSt7__cxx1112basic_stringIcSt11char_traitsIcESaIcEEES9_PNS0_11PhoneNumberE.exit unwind label %10

_ZNK4i18n12phonenumbers15PhoneNumberUtil5ParseERKNSt7__cxx1112basic_stringIcSt11char_traitsIcESaIcEEES9_PNS0_11PhoneNumberE.exit: ; preds = %3
  %6 = icmp eq i32 %5, 0
  br i1 %6, label %7, label %12

7:                                                ; preds = %_ZNK4i18n12phonenumbers15PhoneNumberUtil5ParseERKNSt7__cxx1112basic_stringIcSt11char_traitsIcESaIcEEES9_PNS0_11PhoneNumberE.exit
  %8 = invoke noundef i32 @_ZNK4i18n12phonenumbers15PhoneNumberUtil33IsPossibleNumberForTypeWithReasonERKNS0_11PhoneNumberENS1_15PhoneNumberTypeE(ptr noundef nonnull align 8 dereferenceable(64) %0, ptr noundef nonnull align 8 dereferenceable(72) %4, i32 noundef 11)
          to label %_ZNK4i18n12phonenumbers15PhoneNumberUtil16IsPossibleNumberERKNS0_11PhoneNumberE.exit unwind label %10

_ZNK4i18n12phonenumbers15PhoneNumberUtil16IsPossibleNumberERKNS0_11PhoneNumberE.exit: ; preds = %7
  %9 = icmp ult i32 %8, 2
  br label %12

10:                                               ; preds = %7, %3
  %11 = landingpad { ptr, i32 }
          cleanup
  call void @_ZN4i18n12phonenumbers11PhoneNumberD1Ev(ptr noundef nonnull align 8 dereferenceable(72) %4) #26
  resume { ptr, i32 } %11

12:                                               ; preds = %_ZNK4i18n12phonenumbers15PhoneNumberUtil16IsPossibleNumberERKNS0_11PhoneNumberE.exit, %_ZNK4i18n12phonenumbers15PhoneNumberUtil5ParseERKNSt7__cxx1112basic_stringIcSt11char_traitsIcESaIcEEES9_PNS0_11PhoneNumberE.exit
  %.0 = phi i1 [ %9, %_ZNK4i18n12phonenumbers15PhoneNumberUtil16IsPossibleNumberERKNS0_11PhoneNumberE.exit ], [ false, %_ZNK4i18n12phonenumbers15PhoneNumberUtil5ParseERKNSt7__cxx1112basic_stringIcSt11char_traitsIcESaIcEEES9_PNS0_11PhoneNumberE.exit ]
  call void @_ZN4i18n12phonenumbers11PhoneNumberD1Ev(ptr noundef nonnull align 8 dereferenceable(72) %4) #26
  ret i1 %.0
}